#include <math.h>
#include <stdio.h>
#include <stdlib.h>
#include <string.h>

void main()
{
	char a[1000];
	int b[300]={0},i,n,j=0;
	gets(a);
	n=strlen(a);
	for(i=0;i<n;i++)
	{    
		if(a[i]==' ')
			j=j+1;
		else
			b[j]=b[j]+1;
	}
	printf("%d",b[0]);
	for(j=1;j<300;j++)
		if(b[j]!=0)
			printf(",%d",b[j]);
}