; ModuleID = 'source-C-CXX/27/472.c'
source_filename = "source-C-CXX/27/472.c"
target datalayout = "e-m:e-p270:32:32-p271:32:32-p272:64:64-i64:64-f80:128-n8:16:32:64-S128"
target triple = "x86_64-pc-linux-gnu"

@.str = private unnamed_addr constant [3 x i8] c"%d\00", align 1
@.str.1 = private unnamed_addr constant [4 x i8] c",%d\00", align 1

; Function Attrs: nounwind sspstrong uwtable
define dso_local void @main() local_unnamed_addr #0 {
  %1 = alloca [1000 x i8], align 16
  %2 = alloca [300 x i32], align 16
  %3 = getelementptr inbounds [1000 x i8], [1000 x i8]* %1, i64 0, i64 0
  call void @llvm.lifetime.start.p0i8(i64 1000, i8* nonnull %3) #6
  %4 = bitcast [300 x i32]* %2 to i8*
  call void @llvm.lifetime.start.p0i8(i64 1200, i8* nonnull %4) #6
  call void @llvm.memset.p0i8.i64(i8* noundef nonnull align 16 dereferenceable(1200) %4, i8 0, i64 1200, i1 false)
  %5 = call i32 (i8*, ...) bitcast (i32 (...)* @gets to i32 (i8*, ...)*)(i8* nonnull %3) #6
  %6 = call i64 @strlen(i8* noundef nonnull %3) #7
  %7 = trunc i64 %6 to i32
  %8 = icmp sgt i32 %7, 0
  br i1 %8, label %9, label %51

9:                                                ; preds = %0
  %10 = and i64 %6, 4294967295
  %11 = and i64 %6, 1
  %12 = icmp eq i64 %10, 1
  br i1 %12, label %35, label %13

13:                                               ; preds = %9
  %14 = sub nsw i64 %10, %11
  br label %15

15:                                               ; preds = %72, %13
  %16 = phi i64 [ 0, %13 ], [ %74, %72 ]
  %17 = phi i32 [ 0, %13 ], [ %73, %72 ]
  %18 = phi i64 [ %14, %13 ], [ %75, %72 ]
  %19 = getelementptr inbounds [1000 x i8], [1000 x i8]* %1, i64 0, i64 %16
  %20 = load i8, i8* %19, align 2, !tbaa !5
  %21 = icmp eq i8 %20, 32
  br i1 %21, label %22, label %24

22:                                               ; preds = %15
  %23 = add nsw i32 %17, 1
  br label %29

24:                                               ; preds = %15
  %25 = sext i32 %17 to i64
  %26 = getelementptr inbounds [300 x i32], [300 x i32]* %2, i64 0, i64 %25
  %27 = load i32, i32* %26, align 4, !tbaa !8
  %28 = add nsw i32 %27, 1
  store i32 %28, i32* %26, align 4, !tbaa !8
  br label %29

29:                                               ; preds = %22, %24
  %30 = phi i32 [ %23, %22 ], [ %17, %24 ]
  %31 = or i64 %16, 1
  %32 = getelementptr inbounds [1000 x i8], [1000 x i8]* %1, i64 0, i64 %31
  %33 = load i8, i8* %32, align 1, !tbaa !5
  %34 = icmp eq i8 %33, 32
  br i1 %34, label %70, label %65

35:                                               ; preds = %72, %9
  %36 = phi i64 [ 0, %9 ], [ %74, %72 ]
  %37 = phi i32 [ 0, %9 ], [ %73, %72 ]
  %38 = icmp eq i64 %11, 0
  br i1 %38, label %48, label %39

39:                                               ; preds = %35
  %40 = getelementptr inbounds [1000 x i8], [1000 x i8]* %1, i64 0, i64 %36
  %41 = load i8, i8* %40, align 1, !tbaa !5
  %42 = icmp eq i8 %41, 32
  br i1 %42, label %48, label %43

43:                                               ; preds = %39
  %44 = sext i32 %37 to i64
  %45 = getelementptr inbounds [300 x i32], [300 x i32]* %2, i64 0, i64 %44
  %46 = load i32, i32* %45, align 4, !tbaa !8
  %47 = add nsw i32 %46, 1
  store i32 %47, i32* %45, align 4, !tbaa !8
  br label %48

48:                                               ; preds = %39, %43, %35
  %49 = getelementptr inbounds [300 x i32], [300 x i32]* %2, i64 0, i64 0
  %50 = load i32, i32* %49, align 16, !tbaa !8
  br label %51

51:                                               ; preds = %48, %0
  %52 = phi i32 [ %50, %48 ], [ 0, %0 ]
  %53 = call i32 (i8*, ...) @printf(i8* nonnull dereferenceable(1) getelementptr inbounds ([3 x i8], [3 x i8]* @.str, i64 0, i64 0), i32 %52)
  br label %54

54:                                               ; preds = %51, %61
  %55 = phi i64 [ 1, %51 ], [ %62, %61 ]
  %56 = getelementptr inbounds [300 x i32], [300 x i32]* %2, i64 0, i64 %55
  %57 = load i32, i32* %56, align 4, !tbaa !8
  %58 = icmp eq i32 %57, 0
  br i1 %58, label %61, label %59

59:                                               ; preds = %54
  %60 = call i32 (i8*, ...) @printf(i8* nonnull dereferenceable(1) getelementptr inbounds ([4 x i8], [4 x i8]* @.str.1, i64 0, i64 0), i32 %57)
  br label %61

61:                                               ; preds = %54, %59
  %62 = add nuw nsw i64 %55, 1
  %63 = icmp eq i64 %62, 300
  br i1 %63, label %64, label %54, !llvm.loop !10

64:                                               ; preds = %61
  call void @llvm.lifetime.end.p0i8(i64 1200, i8* nonnull %4) #6
  call void @llvm.lifetime.end.p0i8(i64 1000, i8* nonnull %3) #6
  ret void

65:                                               ; preds = %29
  %66 = sext i32 %30 to i64
  %67 = getelementptr inbounds [300 x i32], [300 x i32]* %2, i64 0, i64 %66
  %68 = load i32, i32* %67, align 4, !tbaa !8
  %69 = add nsw i32 %68, 1
  store i32 %69, i32* %67, align 4, !tbaa !8
  br label %72

70:                                               ; preds = %29
  %71 = add nsw i32 %30, 1
  br label %72

72:                                               ; preds = %70, %65
  %73 = phi i32 [ %71, %70 ], [ %30, %65 ]
  %74 = add nuw nsw i64 %16, 2
  %75 = add i64 %18, -2
  %76 = icmp eq i64 %75, 0
  br i1 %76, label %35, label %15, !llvm.loop !12
}

; Function Attrs: argmemonly mustprogress nofree nosync nounwind willreturn
declare void @llvm.lifetime.start.p0i8(i64 immarg, i8* nocapture) #1

; Function Attrs: argmemonly mustprogress nofree nounwind willreturn writeonly
declare void @llvm.memset.p0i8.i64(i8* nocapture writeonly, i8, i64, i1 immarg) #2

declare i32 @gets(...) local_unnamed_addr #3

; Function Attrs: argmemonly mustprogress nofree nounwind readonly willreturn
declare i64 @strlen(i8* nocapture) local_unnamed_addr #4

; Function Attrs: nofree nounwind
declare noundef i32 @printf(i8* nocapture noundef readonly, ...) local_unnamed_addr #5

; Function Attrs: argmemonly mustprogress nofree nosync nounwind willreturn
declare void @llvm.lifetime.end.p0i8(i64 immarg, i8* nocapture) #1


!llvm.module.flags = !{!0, !1, !2, !3}
!llvm.ident = !{!4}

!0 = !{i32 1, !"wchar_size", i32 4}
!1 = !{i32 7, !"PIC Level", i32 2}
!2 = !{i32 7, !"PIE Level", i32 2}
!3 = !{i32 7, !"uwtable", i32 1}
!4 = !{!"clang version 13.0.0"}
!5 = !{!6, !6, i64 0}
!6 = !{!"omnipotent char", !7, i64 0}
!7 = !{!"Simple C/C++ TBAA"}
!8 = !{!9, !9, i64 0}
!9 = !{!"int", !6, i64 0}
!10 = distinct !{!10, !11}
!11 = !{!"llvm.loop.mustprogress"}
!12 = distinct !{!12, !11}
